; ModuleID = 'source-C-CXX/24/104.cpp'
source_filename = "source-C-CXX/24/104.cpp"
target datalayout = "e-m:e-p270:32:32-p271:32:32-p272:64:64-i64:64-f80:128-n8:16:32:64-S128"
target triple = "x86_64-pc-linux-gnu"

%"class.std::ios_base::Init" = type { i8 }
%"class.std::basic_istream" = type { i32 (...)**, i64, %"class.std::basic_ios" }
%"class.std::basic_ios" = type { %"class.std::ios_base", %"class.std::basic_ostream"*, i8, i8, %"class.std::basic_streambuf"*, %"class.std::ctype"*, %"class.std::num_put"*, %"class.std::num_get"* }
%"class.std::ios_base" = type { i32 (...)**, i64, i64, i32, i32, i32, %"struct.std::ios_base::_Callback_list"*, %"struct.std::ios_base::_Words", [8 x %"struct.std::ios_base::_Words"], i32, %"struct.std::ios_base::_Words"*, %"class.std::locale" }
%"struct.std::ios_base::_Callback_list" = type { %"struct.std::ios_base::_Callback_list"*, void (i32, %"class.std::ios_base"*, i32)*, i32, i32 }
%"struct.std::ios_base::_Words" = type { i8*, i64 }
%"class.std::locale" = type { %"class.std::locale::_Impl"* }
%"class.std::locale::_Impl" = type { i32, %"class.std::locale::facet"**, i64, %"class.std::locale::facet"**, i8** }
%"class.std::locale::facet" = type <{ i32 (...)**, i32, [4 x i8] }>
%"class.std::basic_ostream" = type { i32 (...)**, %"class.std::basic_ios" }
%"class.std::basic_streambuf" = type { i32 (...)**, i8*, i8*, i8*, i8*, i8*, i8*, %"class.std::locale" }
%"class.std::ctype" = type <{ %"class.std::locale::facet.base", [4 x i8], %struct.__locale_struct*, i8, [7 x i8], i32*, i32*, i16*, i8, [256 x i8], [256 x i8], i8, [6 x i8] }>
%"class.std::locale::facet.base" = type <{ i32 (...)**, i32 }>
%struct.__locale_struct = type { [13 x %struct.__locale_data*], i16*, i32*, i32*, [13 x i8*] }
%struct.__locale_data = type opaque
%"class.std::num_put" = type { %"class.std::locale::facet.base", [4 x i8] }
%"class.std::num_get" = type { %"class.std::locale::facet.base", [4 x i8] }

@_ZStL8__ioinit = internal global %"class.std::ios_base::Init" zeroinitializer, align 1
@__dso_handle = external hidden global i8
@_ZSt3cin = external global %"class.std::basic_istream", align 8
@_ZSt4cout = external global %"class.std::basic_ostream", align 8
@llvm.global_ctors = appending global [1 x { i32, void ()*, i8* }] [{ i32, void ()*, i8* } { i32 65535, void ()* @_GLOBAL__sub_I_104.cpp, i8* null }]

declare void @_ZNSt8ios_base4InitC1Ev(%"class.std::ios_base::Init"* nonnull align 1 dereferenceable(1)) unnamed_addr #0

; Function Attrs: nounwind
declare void @_ZNSt8ios_base4InitD1Ev(%"class.std::ios_base::Init"* nonnull align 1 dereferenceable(1)) unnamed_addr #1

; Function Attrs: nofree nounwind
declare i32 @__cxa_atexit(void (i8*)*, i8*, i8*) local_unnamed_addr #2

; Function Attrs: mustprogress norecurse sspstrong uwtable
define dso_local i32 @main() local_unnamed_addr #3 {
  %1 = alloca i32, align 4
  %2 = alloca [100 x i32], align 16
  %3 = bitcast i32* %1 to i8*
  call void @llvm.lifetime.start.p0i8(i64 4, i8* nonnull %3) #7
  %4 = call nonnull align 8 dereferenceable(16) %"class.std::basic_istream"* @_ZNSirsERi(%"class.std::basic_istream"* nonnull align 8 dereferenceable(16) @_ZSt3cin, i32* nonnull align 4 dereferenceable(4) %1)
  %5 = bitcast [100 x i32]* %2 to i8*
  call void @llvm.lifetime.start.p0i8(i64 400, i8* nonnull %5) #7
  call void @llvm.memset.p0i8.i64(i8* noundef nonnull align 16 dereferenceable(400) %5, i8 0, i64 400, i1 false)
  %6 = getelementptr inbounds [100 x i32], [100 x i32]* %2, i64 0, i64 99
  store i32 1, i32* %6, align 4, !tbaa !5
  %7 = load i32, i32* %1, align 4, !tbaa !5
  %8 = icmp slt i32 %7, 1
  br i1 %8, label %39, label %9

9:                                                ; preds = %0
  %10 = add nuw i32 %7, 1
  br label %11

11:                                               ; preds = %35, %9
  %12 = phi i32 [ %36, %35 ], [ 0, %9 ]
  %13 = phi i32 [ %37, %35 ], [ 1, %9 ]
  %14 = insertelement <4 x i32> poison, i32 %12, i32 3
  br label %15

15:                                               ; preds = %15, %11
  %16 = phi i64 [ 0, %11 ], [ %33, %15 ]
  %17 = phi <4 x i32> [ %14, %11 ], [ %26, %15 ]
  %18 = sub i64 99, %16
  %19 = getelementptr inbounds [100 x i32], [100 x i32]* %2, i64 0, i64 %18
  %20 = getelementptr inbounds i32, i32* %19, i64 -3
  %21 = bitcast i32* %20 to <4 x i32>*
  %22 = load <4 x i32>, <4 x i32>* %21, align 16, !tbaa !5
  %23 = shufflevector <4 x i32> %22, <4 x i32> poison, <4 x i32> <i32 3, i32 2, i32 1, i32 0>
  %24 = shl nsw <4 x i32> %23, <i32 1, i32 1, i32 1, i32 1>
  %25 = icmp sgt <4 x i32> %23, <i32 4, i32 4, i32 4, i32 4>
  %26 = zext <4 x i1> %25 to <4 x i32>
  %27 = shufflevector <4 x i32> %17, <4 x i32> %26, <4 x i32> <i32 3, i32 4, i32 5, i32 6>
  %28 = add nsw <4 x i32> %24, %27
  %29 = add nsw <4 x i32> %28, <i32 -10, i32 -10, i32 -10, i32 -10>
  %30 = select <4 x i1> %25, <4 x i32> %29, <4 x i32> %28
  %31 = shufflevector <4 x i32> %30, <4 x i32> poison, <4 x i32> <i32 3, i32 2, i32 1, i32 0>
  %32 = bitcast i32* %20 to <4 x i32>*
  store <4 x i32> %31, <4 x i32>* %32, align 16, !tbaa !5
  %33 = add nuw i64 %16, 4
  %34 = icmp eq i64 %33, 100
  br i1 %34, label %35, label %15, !llvm.loop !9

35:                                               ; preds = %15
  %36 = extractelement <4 x i32> %26, i32 3
  %37 = add nuw i32 %13, 1
  %38 = icmp eq i32 %13, %7
  br i1 %38, label %39, label %11, !llvm.loop !12

39:                                               ; preds = %35, %0
  %40 = phi i32 [ 1, %0 ], [ %10, %35 ]
  br label %41

41:                                               ; preds = %83, %39
  %42 = phi i64 [ 0, %39 ], [ %84, %83 ]
  %43 = getelementptr inbounds [100 x i32], [100 x i32]* %2, i64 0, i64 %42
  %44 = load i32, i32* %43, align 4, !tbaa !5
  %45 = icmp eq i32 %44, 0
  br i1 %45, label %46, label %51

46:                                               ; preds = %41
  %47 = add nuw nsw i64 %42, 1
  %48 = getelementptr inbounds [100 x i32], [100 x i32]* %2, i64 0, i64 %47
  %49 = load i32, i32* %48, align 4, !tbaa !5
  %50 = icmp eq i32 %49, 0
  br i1 %50, label %68, label %51

51:                                               ; preds = %78, %73, %68, %46, %41
  %52 = phi i64 [ %42, %41 ], [ %47, %46 ], [ %69, %68 ], [ %74, %73 ], [ %79, %78 ]
  %53 = trunc i64 %52 to i32
  br label %54

54:                                               ; preds = %83, %51
  %55 = phi i32 [ %53, %51 ], [ %40, %83 ]
  %56 = icmp ult i32 %55, 100
  br i1 %56, label %57, label %67

57:                                               ; preds = %54
  %58 = zext i32 %55 to i64
  br label %59

59:                                               ; preds = %57, %59
  %60 = phi i64 [ %58, %57 ], [ %64, %59 ]
  %61 = getelementptr inbounds [100 x i32], [100 x i32]* %2, i64 0, i64 %60
  %62 = load i32, i32* %61, align 4, !tbaa !5
  %63 = call nonnull align 8 dereferenceable(8) %"class.std::basic_ostream"* @_ZNSolsEi(%"class.std::basic_ostream"* nonnull align 8 dereferenceable(8) @_ZSt4cout, i32 %62)
  %64 = add nuw nsw i64 %60, 1
  %65 = trunc i64 %64 to i32
  %66 = icmp eq i32 %65, 100
  br i1 %66, label %67, label %59, !llvm.loop !13

67:                                               ; preds = %59, %54
  call void @llvm.lifetime.end.p0i8(i64 400, i8* nonnull %5) #7
  call void @llvm.lifetime.end.p0i8(i64 4, i8* nonnull %3) #7
  ret i32 0

68:                                               ; preds = %46
  %69 = add nuw nsw i64 %42, 2
  %70 = getelementptr inbounds [100 x i32], [100 x i32]* %2, i64 0, i64 %69
  %71 = load i32, i32* %70, align 4, !tbaa !5
  %72 = icmp eq i32 %71, 0
  br i1 %72, label %73, label %51

73:                                               ; preds = %68
  %74 = add nuw nsw i64 %42, 3
  %75 = getelementptr inbounds [100 x i32], [100 x i32]* %2, i64 0, i64 %74
  %76 = load i32, i32* %75, align 4, !tbaa !5
  %77 = icmp eq i32 %76, 0
  br i1 %77, label %78, label %51

78:                                               ; preds = %73
  %79 = add nuw nsw i64 %42, 4
  %80 = getelementptr inbounds [100 x i32], [100 x i32]* %2, i64 0, i64 %79
  %81 = load i32, i32* %80, align 4, !tbaa !5
  %82 = icmp eq i32 %81, 0
  br i1 %82, label %83, label %51

83:                                               ; preds = %78
  %84 = add nuw nsw i64 %42, 5
  %85 = icmp eq i64 %84, 100
  br i1 %85, label %54, label %41, !llvm.loop !14
}

; Function Attrs: argmemonly mustprogress nofree nosync nounwind willreturn
declare void @llvm.lifetime.start.p0i8(i64 immarg, i8* nocapture) #4

declare nonnull align 8 dereferenceable(16) %"class.std::basic_istream"* @_ZNSirsERi(%"class.std::basic_istream"* nonnull align 8 dereferenceable(16), i32* nonnull align 4 dereferenceable(4)) local_unnamed_addr #0

; Function Attrs: argmemonly mustprogress nofree nounwind willreturn writeonly
declare void @llvm.memset.p0i8.i64(i8* nocapture writeonly, i8, i64, i1 immarg) #5

declare nonnull align 8 dereferenceable(8) %"class.std::basic_ostream"* @_ZNSolsEi(%"class.std::basic_ostream"* nonnull align 8 dereferenceable(8), i32) local_unnamed_addr #0

; Function Attrs: argmemonly mustprogress nofree nosync nounwind willreturn
declare void @llvm.lifetime.end.p0i8(i64 immarg, i8* nocapture) #4

; Function Attrs: sspstrong uwtable
define internal void @_GLOBAL__sub_I_104.cpp() #6 section ".text.startup" {
  tail call void @_ZNSt8ios_base4InitC1Ev(%"class.std::ios_base::Init"* nonnull align 1 dereferenceable(1) @_ZStL8__ioinit)
  %1 = tail call i32 @__cxa_atexit(void (i8*)* bitcast (void (%"class.std::ios_base::Init"*)* @_ZNSt8ios_base4InitD1Ev to void (i8*)*), i8* getelementptr inbounds (%"class.std::ios_base::Init", %"class.std::ios_base::Init"* @_ZStL8__ioinit, i64 0, i32 0), i8* nonnull @__dso_handle) #7
  ret void
}


!llvm.module.flags = !{!0, !1, !2, !3}
!llvm.ident = !{!4}

!0 = !{i32 1, !"wchar_size", i32 4}
!1 = !{i32 7, !"PIC Level", i32 2}
!2 = !{i32 7, !"PIE Level", i32 2}
!3 = !{i32 7, !"uwtable", i32 1}
!4 = !{!"clang version 13.0.0"}
!5 = !{!6, !6, i64 0}
!6 = !{!"int", !7, i64 0}
!7 = !{!"omnipotent char", !8, i64 0}
!8 = !{!"Simple C++ TBAA"}
!9 = distinct !{!9, !10, !11}
!10 = !{!"llvm.loop.mustprogress"}
!11 = !{!"llvm.loop.isvectorized", i32 1}
!12 = distinct !{!12, !10}
!13 = distinct !{!13, !10}
!14 = distinct !{!14, !10}
